; ModuleID = '55/466.c'
source_filename = "55/466.c"
target datalayout = "e-m:e-p270:32:32-p271:32:32-p272:64:64-i64:64-f80:128-n8:16:32:64-S128"
target triple = "x86_64-pc-linux-gnu"

@.str = private unnamed_addr constant [9 x i8] c"%d %s %d\00", align 1
@.str.1 = private unnamed_addr constant [2 x i8] c"0\00", align 1
@.str.2 = private unnamed_addr constant [3 x i8] c"%c\00", align 1

; Function Attrs: noinline nounwind uwtable
define dso_local void @main() #0 {
  %1 = alloca i32, align 4
  %2 = alloca i32, align 4
  %3 = alloca i32, align 4
  %4 = alloca i32, align 4
  %5 = alloca i64, align 8
  %6 = alloca [50 x i8], align 16
  %7 = alloca [50 x i8], align 16
  %8 = alloca [50 x i8], align 16
  %9 = getelementptr inbounds [50 x i8], [50 x i8]* %6, i64 0, i64 0
  %10 = call i32 (i8*, ...) @__isoc99_scanf(i8* getelementptr inbounds ([9 x i8], [9 x i8]* @.str, i64 0, i64 0), i32* %1, i8* %9, i32* %2)
  store i64 0, i64* %5, align 8
  store i32 0, i32* %3, align 4
  br label %11

11:                                               ; preds = %96, %0
  %12 = load i32, i32* %3, align 4
  %13 = sext i32 %12 to i64
  %14 = getelementptr inbounds [50 x i8], [50 x i8]* %6, i64 0, i64 0
  %15 = call i64 @strlen(i8* %14) #3
  %16 = icmp ult i64 %13, %15
  br i1 %16, label %17, label %99

17:                                               ; preds = %11
  %18 = load i32, i32* %3, align 4
  %19 = sext i32 %18 to i64
  %20 = getelementptr inbounds [50 x i8], [50 x i8]* %6, i64 0, i64 %19
  %21 = load i8, i8* %20, align 1
  %22 = sext i8 %21 to i32
  %23 = icmp sge i32 %22, 48
  br i1 %23, label %24, label %43

24:                                               ; preds = %17
  %25 = load i32, i32* %3, align 4
  %26 = sext i32 %25 to i64
  %27 = getelementptr inbounds [50 x i8], [50 x i8]* %6, i64 0, i64 %26
  %28 = load i8, i8* %27, align 1
  %29 = sext i8 %28 to i32
  %30 = icmp sle i32 %29, 57
  br i1 %30, label %31, label %43

31:                                               ; preds = %24
  %32 = load i64, i64* %5, align 8
  %33 = load i32, i32* %1, align 4
  %34 = sext i32 %33 to i64
  %35 = mul nsw i64 %32, %34
  %36 = load i32, i32* %3, align 4
  %37 = sext i32 %36 to i64
  %38 = getelementptr inbounds [50 x i8], [50 x i8]* %6, i64 0, i64 %37
  %39 = load i8, i8* %38, align 1
  %40 = sext i8 %39 to i64
  %41 = add nsw i64 %35, %40
  %42 = sub nsw i64 %41, 48
  store i64 %42, i64* %5, align 8
  br label %43

43:                                               ; preds = %31, %24, %17
  %44 = load i32, i32* %3, align 4
  %45 = sext i32 %44 to i64
  %46 = getelementptr inbounds [50 x i8], [50 x i8]* %6, i64 0, i64 %45
  %47 = load i8, i8* %46, align 1
  %48 = sext i8 %47 to i32
  %49 = icmp sge i32 %48, 65
  br i1 %49, label %50, label %69

50:                                               ; preds = %43
  %51 = load i32, i32* %3, align 4
  %52 = sext i32 %51 to i64
  %53 = getelementptr inbounds [50 x i8], [50 x i8]* %6, i64 0, i64 %52
  %54 = load i8, i8* %53, align 1
  %55 = sext i8 %54 to i32
  %56 = icmp sle i32 %55, 90
  br i1 %56, label %57, label %69

57:                                               ; preds = %50
  %58 = load i64, i64* %5, align 8
  %59 = load i32, i32* %1, align 4
  %60 = sext i32 %59 to i64
  %61 = mul nsw i64 %58, %60
  %62 = load i32, i32* %3, align 4
  %63 = sext i32 %62 to i64
  %64 = getelementptr inbounds [50 x i8], [50 x i8]* %6, i64 0, i64 %63
  %65 = load i8, i8* %64, align 1
  %66 = sext i8 %65 to i64
  %67 = add nsw i64 %61, %66
  %68 = sub nsw i64 %67, 55
  store i64 %68, i64* %5, align 8
  br label %69

69:                                               ; preds = %57, %50, %43
  %70 = load i32, i32* %3, align 4
  %71 = sext i32 %70 to i64
  %72 = getelementptr inbounds [50 x i8], [50 x i8]* %6, i64 0, i64 %71
  %73 = load i8, i8* %72, align 1
  %74 = sext i8 %73 to i32
  %75 = icmp sge i32 %74, 97
  br i1 %75, label %76, label %95

76:                                               ; preds = %69
  %77 = load i32, i32* %3, align 4
  %78 = sext i32 %77 to i64
  %79 = getelementptr inbounds [50 x i8], [50 x i8]* %6, i64 0, i64 %78
  %80 = load i8, i8* %79, align 1
  %81 = sext i8 %80 to i32
  %82 = icmp sle i32 %81, 122
  br i1 %82, label %83, label %95

83:                                               ; preds = %76
  %84 = load i64, i64* %5, align 8
  %85 = load i32, i32* %1, align 4
  %86 = sext i32 %85 to i64
  %87 = mul nsw i64 %84, %86
  %88 = load i32, i32* %3, align 4
  %89 = sext i32 %88 to i64
  %90 = getelementptr inbounds [50 x i8], [50 x i8]* %6, i64 0, i64 %89
  %91 = load i8, i8* %90, align 1
  %92 = sext i8 %91 to i64
  %93 = add nsw i64 %87, %92
  %94 = sub nsw i64 %93, 87
  store i64 %94, i64* %5, align 8
  br label %95

95:                                               ; preds = %83, %76, %69
  br label %96

96:                                               ; preds = %95
  %97 = load i32, i32* %3, align 4
  %98 = add nsw i32 %97, 1
  store i32 %98, i32* %3, align 4
  br label %11

99:                                               ; preds = %11
  %100 = load i64, i64* %5, align 8
  %101 = icmp eq i64 %100, 0
  br i1 %101, label %102, label %104

102:                                              ; preds = %99
  %103 = call i32 (i8*, ...) @printf(i8* getelementptr inbounds ([2 x i8], [2 x i8]* @.str.1, i64 0, i64 0))
  br label %104

104:                                              ; preds = %102, %99
  store i32 0, i32* %3, align 4
  br label %105

105:                                              ; preds = %139, %104
  %106 = load i64, i64* %5, align 8
  %107 = icmp sgt i64 %106, 0
  br i1 %107, label %108, label %142

108:                                              ; preds = %105
  %109 = load i64, i64* %5, align 8
  %110 = load i32, i32* %2, align 4
  %111 = sext i32 %110 to i64
  %112 = srem i64 %109, %111
  %113 = icmp slt i64 %112, 10
  br i1 %113, label %114, label %124

114:                                              ; preds = %108
  %115 = load i64, i64* %5, align 8
  %116 = load i32, i32* %2, align 4
  %117 = sext i32 %116 to i64
  %118 = srem i64 %115, %117
  %119 = add nsw i64 %118, 48
  %120 = trunc i64 %119 to i8
  %121 = load i32, i32* %3, align 4
  %122 = sext i32 %121 to i64
  %123 = getelementptr inbounds [50 x i8], [50 x i8]* %7, i64 0, i64 %122
  store i8 %120, i8* %123, align 1
  br label %134

124:                                              ; preds = %108
  %125 = load i64, i64* %5, align 8
  %126 = load i32, i32* %2, align 4
  %127 = sext i32 %126 to i64
  %128 = srem i64 %125, %127
  %129 = add nsw i64 %128, 55
  %130 = trunc i64 %129 to i8
  %131 = load i32, i32* %3, align 4
  %132 = sext i32 %131 to i64
  %133 = getelementptr inbounds [50 x i8], [50 x i8]* %7, i64 0, i64 %132
  store i8 %130, i8* %133, align 1
  br label %134

134:                                              ; preds = %124, %114
  %135 = load i64, i64* %5, align 8
  %136 = load i32, i32* %2, align 4
  %137 = sext i32 %136 to i64
  %138 = sdiv i64 %135, %137
  store i64 %138, i64* %5, align 8
  br label %139

139:                                              ; preds = %134
  %140 = load i32, i32* %3, align 4
  %141 = add nsw i32 %140, 1
  store i32 %141, i32* %3, align 4
  br label %105

142:                                              ; preds = %105
  %143 = load i32, i32* %3, align 4
  %144 = sub nsw i32 %143, 1
  store i32 %144, i32* %3, align 4
  store i32 0, i32* %4, align 4
  br label %145

145:                                              ; preds = %158, %142
  %146 = load i32, i32* %3, align 4
  %147 = icmp sge i32 %146, 0
  br i1 %147, label %148, label %161

148:                                              ; preds = %145
  %149 = load i32, i32* %3, align 4
  %150 = sext i32 %149 to i64
  %151 = getelementptr inbounds [50 x i8], [50 x i8]* %7, i64 0, i64 %150
  %152 = load i8, i8* %151, align 1
  %153 = load i32, i32* %4, align 4
  %154 = sext i32 %153 to i64
  %155 = getelementptr inbounds [50 x i8], [50 x i8]* %8, i64 0, i64 %154
  store i8 %152, i8* %155, align 1
  %156 = load i32, i32* %3, align 4
  %157 = sub nsw i32 %156, 1
  store i32 %157, i32* %3, align 4
  br label %158

158:                                              ; preds = %148
  %159 = load i32, i32* %4, align 4
  %160 = add nsw i32 %159, 1
  store i32 %160, i32* %4, align 4
  br label %145

161:                                              ; preds = %145
  store i32 0, i32* %3, align 4
  br label %162

162:                                              ; preds = %173, %161
  %163 = load i32, i32* %3, align 4
  %164 = load i32, i32* %4, align 4
  %165 = icmp slt i32 %163, %164
  br i1 %165, label %166, label %176

166:                                              ; preds = %162
  %167 = load i32, i32* %3, align 4
  %168 = sext i32 %167 to i64
  %169 = getelementptr inbounds [50 x i8], [50 x i8]* %8, i64 0, i64 %168
  %170 = load i8, i8* %169, align 1
  %171 = sext i8 %170 to i32
  %172 = call i32 (i8*, ...) @printf(i8* getelementptr inbounds ([3 x i8], [3 x i8]* @.str.2, i64 0, i64 0), i32 %171)
  br label %173

173:                                              ; preds = %166
  %174 = load i32, i32* %3, align 4
  %175 = add nsw i32 %174, 1
  store i32 %175, i32* %3, align 4
  br label %162

176:                                              ; preds = %162
  ret void
}

declare dso_local i32 @__isoc99_scanf(i8*, ...) #1

; Function Attrs: nounwind readonly
declare dso_local i64 @strlen(i8*) #2

declare dso_local i32 @printf(i8*, ...) #1


!llvm.module.flags = !{!0}
!llvm.ident = !{!1}

!0 = !{i32 1, !"wchar_size", i32 4}
!1 = !{!"clang version 10.0.0-4ubuntu1 "}
